; Function Attrs: nounwind uwtable
define void @stbiw__write_pixels(ptr noundef %0, i32 noundef %1, i32 noundef %2, i32 noundef %3, i32 noundef %4, i32 noundef %5, ptr noundef readonly captures(none) %6, i32 noundef %7, i32 noundef %8, i32 noundef %9) local_unnamed_addr #5 {
  %11 = alloca i32, align 4
  call void @llvm.lifetime.start.p0(i64 4, ptr nonnull %11) #26
  store i32 0, ptr %11, align 4, !tbaa !3
  %12 = icmp slt i32 %4, 1
  br i1 %12, label %.loopexit, label %13

13:                                               ; preds = %10
  %14 = load i32, ptr @stbi__flip_vertically_on_write, align 4, !tbaa !3
  %.not = icmp eq i32 %14, 0
  %15 = sub nsw i32 0, %2
  %spec.select = select i1 %.not, i32 %2, i32 %15
  %16 = icmp slt i32 %spec.select, 0
  %17 = add nsw i32 %4, -1
  %.027 = select i1 %16, i32 %17, i32 0
  %.026 = select i1 %16, i32 -1, i32 %4
  %18 = icmp sgt i32 %3, 0
  %19 = getelementptr inbounds nuw i8, ptr %0, i64 80
  %20 = getelementptr inbounds nuw i8, ptr %0, i64 8
  %21 = getelementptr inbounds nuw i8, ptr %0, i64 16
  br i1 %18, label %.preheader.us.preheader, label %.preheader

.preheader.us.preheader:                          ; preds = %13
  %22 = sext i32 %5 to i64
  %23 = zext nneg i32 %.027 to i64
  %24 = sext i32 %spec.select to i64
  %25 = zext nneg i32 %3 to i64
  %wide.trip.count = zext nneg i32 %3 to i64
  br label %.preheader.us

.preheader.us:                                    ; preds = %.preheader.us.preheader, %stbiw__write_flush.exit.us
  %indvars.iv36 = phi i64 [ %23, %.preheader.us.preheader ], [ %indvars.iv.next37, %stbiw__write_flush.exit.us ]
  %26 = mul nsw i64 %indvars.iv36, %25
  br label %33

27:                                               ; preds = %._crit_edge.us
  %28 = load ptr, ptr %0, align 8, !tbaa !7
  %29 = load ptr, ptr %20, align 8, !tbaa !10
  call void %28(ptr noundef %29, ptr noundef nonnull %21, i32 noundef %37) #26
  store i32 0, ptr %19, align 8, !tbaa !14
  br label %stbiw__write_flush.exit.us

stbiw__write_flush.exit.us:                       ; preds = %27, %._crit_edge.us
  %30 = load ptr, ptr %0, align 8, !tbaa !7
  %31 = load ptr, ptr %20, align 8, !tbaa !10
  call void %30(ptr noundef %31, ptr noundef nonnull %11, i32 noundef %8) #26
  %indvars.iv.next37 = add nsw i64 %indvars.iv36, %24
  %32 = trunc nsw i64 %indvars.iv.next37 to i32
  %.not31.us = icmp eq i32 %.026, %32
  br i1 %.not31.us, label %.loopexit, label %.preheader.us, !llvm.loop !16

33:                                               ; preds = %.preheader.us, %33
  %indvars.iv = phi i64 [ 0, %.preheader.us ], [ %indvars.iv.next, %33 ]
  %34 = add nsw i64 %indvars.iv, %26
  %35 = mul nsw i64 %34, %22
  %36 = getelementptr inbounds i8, ptr %6, i64 %35
  call void @stbiw__write_pixel(ptr noundef %0, i32 noundef %1, i32 noundef %5, i32 noundef %7, i32 noundef %9, ptr noundef %36)
  %indvars.iv.next = add nuw nsw i64 %indvars.iv, 1
  %exitcond.not = icmp eq i64 %indvars.iv.next, %wide.trip.count
  br i1 %exitcond.not, label %._crit_edge.us, label %33, !llvm.loop !17

._crit_edge.us:                                   ; preds = %33
  %37 = load i32, ptr %19, align 8, !tbaa !14
  %.not.i.us = icmp eq i32 %37, 0
  br i1 %.not.i.us, label %stbiw__write_flush.exit.us, label %27

.preheader:                                       ; preds = %13, %stbiw__write_flush.exit
  %.133 = phi i32 [ %44, %stbiw__write_flush.exit ], [ %.027, %13 ]
  %38 = load i32, ptr %19, align 8, !tbaa !14
  %.not.i = icmp eq i32 %38, 0
  br i1 %.not.i, label %stbiw__write_flush.exit, label %39

39:                                               ; preds = %.preheader
  %40 = load ptr, ptr %0, align 8, !tbaa !7
  %41 = load ptr, ptr %20, align 8, !tbaa !10
  call void %40(ptr noundef %41, ptr noundef nonnull %21, i32 noundef %38) #26
  store i32 0, ptr %19, align 8, !tbaa !14
  br label %stbiw__write_flush.exit

stbiw__write_flush.exit:                          ; preds = %.preheader, %39
  %42 = load ptr, ptr %0, align 8, !tbaa !7
  %43 = load ptr, ptr %20, align 8, !tbaa !10
  call void %42(ptr noundef %43, ptr noundef nonnull %11, i32 noundef %8) #26
  %44 = add nsw i32 %.133, %spec.select
  %.not31 = icmp eq i32 %44, %.026
  br i1 %.not31, label %.loopexit, label %.preheader, !llvm.loop !16

.loopexit:                                        ; preds = %stbiw__write_flush.exit, %stbiw__write_flush.exit.us, %10
  call void @llvm.lifetime.end.p0(i64 4, ptr nonnull %11) #26
  ret void
}